; Function Attrs: mustprogress uwtable
define void @_ZNK6icu_756Locale15getKeywordValueENS_11StringPieceERNS_8ByteSinkER10UErrorCode(ptr nocapture noundef nonnull readonly align 8 dereferenceable(217) %this, ptr %keywordName.coerce0, i32 %keywordName.coerce1, ptr noundef nonnull align 8 dereferenceable(8) %sink, ptr noundef nonnull align 4 dereferenceable(4) %status) local_unnamed_addr #1 align 2 personality ptr @__gxx_personality_v0 {
entry:
  %keywordName_nul = alloca %"class.icu_75::CharString", align 8
  %0 = load i32, ptr %status, align 4
  %cmp.i = icmp slt i32 %0, 1
  br i1 %cmp.i, label %if.end, label %cleanup.cont

if.end:                                           ; preds = %entry
  %fIsBogus = getelementptr inbounds i8, ptr %this, i64 216
  %1 = load i8, ptr %fIsBogus, align 8
  %tobool2.not = icmp eq i8 %1, 0
  br i1 %tobool2.not, label %if.end4, label %if.then3

if.then3:                                         ; preds = %if.end
  store i32 1, ptr %status, align 4
  br label %cleanup.cont

if.end4:                                          ; preds = %if.end
  call void @_ZN6icu_7515MaybeStackArrayIcLi40EEC1Ev(ptr noundef nonnull align 8 dereferenceable(53) %keywordName_nul)
  %len.i = getelementptr inbounds i8, ptr %keywordName_nul, i64 56
  store i32 0, ptr %len.i, align 8
  %2 = load ptr, ptr %keywordName_nul, align 8
  store i8 0, ptr %2, align 1
  %call3.i1.i = invoke noundef nonnull align 8 dereferenceable(60) ptr @_ZN6icu_7510CharString6appendEPKciR10UErrorCode(ptr noundef nonnull align 8 dereferenceable(60) %keywordName_nul, ptr noundef %keywordName.coerce0, i32 noundef %keywordName.coerce1, ptr noundef nonnull align 4 dereferenceable(4) %status)
          to label %_ZN6icu_7510CharStringC2ENS_11StringPieceER10UErrorCode.exit unwind label %lpad.i

common.resume:                                    ; preds = %lpad, %lpad.i
  %common.resume.op = phi { ptr, i32 } [ %3, %lpad.i ], [ %5, %lpad ]
  call void @_ZN6icu_7515MaybeStackArrayIcLi40EED1Ev(ptr noundef nonnull align 8 dereferenceable(53) %keywordName_nul) #20
  resume { ptr, i32 } %common.resume.op

lpad.i:                                           ; preds = %if.end4
  %3 = landingpad { ptr, i32 }
          cleanup
  br label %common.resume

_ZN6icu_7510CharStringC2ENS_11StringPieceER10UErrorCode.exit: ; preds = %if.end4
  %4 = load i32, ptr %status, align 4
  %cmp.i5 = icmp slt i32 %4, 1
  br i1 %cmp.i5, label %if.end8, label %cleanup

lpad:                                             ; preds = %if.end8
  %5 = landingpad { ptr, i32 }
          cleanup
  br label %common.resume

if.end8:                                          ; preds = %_ZN6icu_7510CharStringC2ENS_11StringPieceER10UErrorCode.exit
  %fullName = getelementptr inbounds i8, ptr %this, i64 40
  %6 = load ptr, ptr %fullName, align 8
  %7 = load ptr, ptr %keywordName_nul, align 8
  invoke void @ulocimp_getKeywordValue_75(ptr noundef %6, ptr noundef %7, ptr noundef nonnull align 8 dereferenceable(8) %sink, ptr noundef nonnull %status)
          to label %cleanup unwind label %lpad

cleanup:                                          ; preds = %if.end8, %_ZN6icu_7510CharStringC2ENS_11StringPieceER10UErrorCode.exit
  call void @_ZN6icu_7515MaybeStackArrayIcLi40EED1Ev(ptr noundef nonnull align 8 dereferenceable(53) %keywordName_nul) #20
  br label %cleanup.cont

cleanup.cont:                                     ; preds = %entry, %cleanup, %if.then3
  ret void
}